target datalayout = "e-m:e-p270:32:32-p271:32:32-p272:64:64-i64:64-i128:128-f80:128-n8:16:32:64-S128"
target triple = "x86_64-unknown-linux-gnu"

%"struct.OpenImageIO_v2_6_0::ROI" = type { i32, i32, i32, i32, i32, i32, i32, i32 }
%"class.OpenImageIO_v2_6_0::paropt" = type <{ i32, i16, i16, i64, ptr, i8, [7 x i8] }>
%"class.std::function" = type { %"class.std::_Function_base", ptr }
%"class.std::_Function_base" = type { %"union.std::_Any_data", ptr }
%"union.std::_Any_data" = type { %"union.std::_Nocopy_types" }
%"union.std::_Nocopy_types" = type { { i64, i64 } }
%class.anon.345 = type { ptr, ptr, ptr }

; Function Attrs: mustprogress nounwind uwtable
define linkonce_odr noundef ptr @_ZNSt9_Any_data9_M_accessEv(ptr noundef nonnull align 8 dereferenceable(16) %this) #4 comdat align 2 {
entry:
  %this.addr = alloca ptr, align 8
  store ptr %this, ptr %this.addr, align 8
  %this1 = load ptr, ptr %this.addr, align 8
  %arrayidx = getelementptr inbounds [16 x i8], ptr %this1, i64 0, i64 0
  ret ptr %arrayidx
}

; Function Attrs: mustprogress nounwind uwtable
define internal noundef nonnull align 8 dereferenceable(8) ptr @_ZNSt9_Any_data9_M_accessIPZN18OpenImageIO_v2_6_0L8div_implI4halfttEEbRNS1_8ImageBufERKS4_S7_NS1_3ROIEiEUlS8_E_EERT_v(ptr noundef nonnull align 8 dereferenceable(16) %this) #4 align 2 {
entry:
  %this.addr = alloca ptr, align 8
  store ptr %this, ptr %this.addr, align 8
  %this1 = load ptr, ptr %this.addr, align 8
  %call = call noundef ptr @_ZNSt9_Any_data9_M_accessEv(ptr noundef nonnull align 8 dereferenceable(16) %this1) #3
  ret ptr %call
}

; Function Attrs: mustprogress uwtable
define internal void @_ZNSt14_Function_base13_Base_managerIZN18OpenImageIO_v2_6_0L8div_implI4halfttEEbRNS1_8ImageBufERKS4_S7_NS1_3ROIEiEUlS8_E_E9_M_createIS9_EEvRSt9_Any_dataOT_St17integral_constantIbLb0EE(ptr noundef nonnull align 8 dereferenceable(16) %__dest, ptr noundef nonnull align 8 dereferenceable(24) %__f) #6 align 2 {
entry:
  %__dest.addr = alloca ptr, align 8
  %__f.addr = alloca ptr, align 8
  store ptr %__dest, ptr %__dest.addr, align 8
  store ptr %__f, ptr %__f.addr, align 8
  %call = call noalias noundef nonnull ptr @_Znwm(i64 noundef 24) #19
  %0 = load ptr, ptr %__f.addr, align 8
  call void @llvm.memcpy.p0.p0.i64(ptr align 16 %call, ptr align 8 %0, i64 24, i1 false)
  %1 = load ptr, ptr %__dest.addr, align 8
  %call1 = call noundef nonnull align 8 dereferenceable(8) ptr @_ZNSt9_Any_data9_M_accessIPZN18OpenImageIO_v2_6_0L8div_implI4halfttEEbRNS1_8ImageBufERKS4_S7_NS1_3ROIEiEUlS8_E_EERT_v(ptr noundef nonnull align 8 dereferenceable(16) %1) #3
  store ptr %call, ptr %call1, align 8
  ret void
}

; Function Attrs: mustprogress nounwind uwtable
define linkonce_odr void @_ZNSt14_Function_baseD2Ev(ptr noundef nonnull align 8 dereferenceable(24) %this) unnamed_addr #4 comdat align 2 personality ptr @__gxx_personality_v0 {
entry:
  %this.addr = alloca ptr, align 8
  store ptr %this, ptr %this.addr, align 8
  %this1 = load ptr, ptr %this.addr, align 8
  %_M_manager = getelementptr inbounds %"class.std::_Function_base", ptr %this1, i32 0, i32 1
  %0 = load ptr, ptr %_M_manager, align 8
  %tobool = icmp ne ptr %0, null
  br i1 %tobool, label %if.then, label %if.end

if.then:                                          ; preds = %entry
  %_M_manager2 = getelementptr inbounds %"class.std::_Function_base", ptr %this1, i32 0, i32 1
  %1 = load ptr, ptr %_M_manager2, align 8
  %_M_functor = getelementptr inbounds %"class.std::_Function_base", ptr %this1, i32 0, i32 0
  %_M_functor3 = getelementptr inbounds %"class.std::_Function_base", ptr %this1, i32 0, i32 0
  %call = invoke noundef zeroext i1 %1(ptr noundef nonnull align 8 dereferenceable(16) %_M_functor, ptr noundef nonnull align 8 dereferenceable(16) %_M_functor3, i32 noundef 3)
          to label %invoke.cont unwind label %terminate.lpad

invoke.cont:                                      ; preds = %if.then
  br label %if.end

if.end:                                           ; preds = %invoke.cont, %entry
  ret void

terminate.lpad:                                   ; preds = %if.then
  %2 = landingpad { ptr, i32 }
          catch ptr null
  %3 = extractvalue { ptr, i32 } %2, 0
  call void @__clang_call_terminate(ptr %3) #17
  unreachable
}

; Function Attrs: mustprogress uwtable
define internal void @_ZNSt14_Function_base13_Base_managerIZN18OpenImageIO_v2_6_0L8div_implI4halfttEEbRNS1_8ImageBufERKS4_S7_NS1_3ROIEiEUlS8_E_E15_M_init_functorIS9_EEvRSt9_Any_dataOT_(ptr noundef nonnull align 8 dereferenceable(16) %__functor, ptr noundef nonnull align 8 dereferenceable(24) %__f) #6 align 2 {
entry:
  %__functor.addr = alloca ptr, align 8
  %__f.addr = alloca ptr, align 8
  store ptr %__functor, ptr %__functor.addr, align 8
  store ptr %__f, ptr %__f.addr, align 8
  %0 = load ptr, ptr %__functor.addr, align 8
  %1 = load ptr, ptr %__f.addr, align 8
  call void @_ZNSt14_Function_base13_Base_managerIZN18OpenImageIO_v2_6_0L8div_implI4halfttEEbRNS1_8ImageBufERKS4_S7_NS1_3ROIEiEUlS8_E_E9_M_createIS9_EEvRSt9_Any_dataOT_St17integral_constantIbLb0EE(ptr noundef nonnull align 8 dereferenceable(16) %0, ptr noundef nonnull align 8 dereferenceable(24) %1)
  ret void
}

; Function Attrs: mustprogress nounwind uwtable
define internal noundef zeroext i1 @_ZNSt14_Function_base13_Base_managerIZN18OpenImageIO_v2_6_0L8div_implI4halfttEEbRNS1_8ImageBufERKS4_S7_NS1_3ROIEiEUlS8_E_E21_M_not_empty_functionIS9_EEbRKT_(ptr noundef nonnull align 8 dereferenceable(24) %0) #4 align 2 {
entry:
  %.addr = alloca ptr, align 8
  store ptr %0, ptr %.addr, align 8
  ret i1 true
}

; Function Attrs: mustprogress nounwind uwtable
define linkonce_odr void @_ZNSt14_Function_baseC2Ev(ptr noundef nonnull align 8 dereferenceable(24) %this) unnamed_addr #4 comdat align 2 {
entry:
  %this.addr = alloca ptr, align 8
  store ptr %this, ptr %this.addr, align 8
  %this1 = load ptr, ptr %this.addr, align 8
  %_M_functor = getelementptr inbounds %"class.std::_Function_base", ptr %this1, i32 0, i32 0
  store ptr null, ptr %_M_functor, align 8
  %_M_manager = getelementptr inbounds %"class.std::_Function_base", ptr %this1, i32 0, i32 1
  store ptr null, ptr %_M_manager, align 8
  ret void
}

; Function Attrs: mustprogress nounwind uwtable
define linkonce_odr hidden void @_ZNSt8functionIFvN18OpenImageIO_v2_6_03ROIEEED2Ev(ptr noundef nonnull align 8 dereferenceable(32) %this) unnamed_addr #4 comdat align 2 {
entry:
  %this.addr = alloca ptr, align 8
  store ptr %this, ptr %this.addr, align 8
  %this1 = load ptr, ptr %this.addr, align 8
  call void @_ZNSt14_Function_baseD2Ev(ptr noundef nonnull align 8 dereferenceable(24) %this1) #3
  ret void
}

; Function Attrs: mustprogress uwtable
define internal void @_ZNSt8functionIFvN18OpenImageIO_v2_6_03ROIEEEC2IZNS0_L8div_implI4halfttEEbRNS0_8ImageBufERKS7_SA_S1_iEUlS1_E_vEEOT_(ptr noundef nonnull align 8 dereferenceable(32) %this, ptr noundef nonnull align 8 dereferenceable(24) %__f) unnamed_addr #6 align 2 personality ptr @__gxx_personality_v0 {
entry:
  %this.addr = alloca ptr, align 8
  %__f.addr = alloca ptr, align 8
  %exn.slot = alloca ptr, align 8
  %ehselector.slot = alloca i32, align 4
  store ptr %this, ptr %this.addr, align 8
  store ptr %__f, ptr %__f.addr, align 8
  %this1 = load ptr, ptr %this.addr, align 8
  %0 = getelementptr inbounds i8, ptr %this1, i64 0
  call void @llvm.memset.p0.i64(ptr align 8 %0, i8 0, i64 24, i1 false)
  call void @_ZNSt14_Function_baseC2Ev(ptr noundef nonnull align 8 dereferenceable(24) %this1) #3
  %_M_invoker = getelementptr inbounds %"class.std::function", ptr %this1, i32 0, i32 1
  store ptr null, ptr %_M_invoker, align 8
  %1 = load ptr, ptr %__f.addr, align 8
  %call = call noundef zeroext i1 @_ZNSt14_Function_base13_Base_managerIZN18OpenImageIO_v2_6_0L8div_implI4halfttEEbRNS1_8ImageBufERKS4_S7_NS1_3ROIEiEUlS8_E_E21_M_not_empty_functionIS9_EEbRKT_(ptr noundef nonnull align 8 dereferenceable(24) %1) #3
  br i1 %call, label %if.then, label %if.end

if.then:                                          ; preds = %entry
  %_M_functor = getelementptr inbounds %"class.std::_Function_base", ptr %this1, i32 0, i32 0
  %2 = load ptr, ptr %__f.addr, align 8
  invoke void @_ZNSt14_Function_base13_Base_managerIZN18OpenImageIO_v2_6_0L8div_implI4halfttEEbRNS1_8ImageBufERKS4_S7_NS1_3ROIEiEUlS8_E_E15_M_init_functorIS9_EEvRSt9_Any_dataOT_(ptr noundef nonnull align 8 dereferenceable(16) %_M_functor, ptr noundef nonnull align 8 dereferenceable(24) %2)
          to label %invoke.cont unwind label %lpad

invoke.cont:                                      ; preds = %if.then
  %_M_invoker2 = getelementptr inbounds %"class.std::function", ptr %this1, i32 0, i32 1
  store ptr @_ZNSt17_Function_handlerIFvN18OpenImageIO_v2_6_03ROIEEZNS0_L8div_implI4halfttEEbRNS0_8ImageBufERKS5_S8_S1_iEUlS1_E_E9_M_invokeERKSt9_Any_dataOS1_, ptr %_M_invoker2, align 8
  %_M_manager = getelementptr inbounds %"class.std::_Function_base", ptr %this1, i32 0, i32 1
  store ptr @_ZNSt17_Function_handlerIFvN18OpenImageIO_v2_6_03ROIEEZNS0_L8div_implI4halfttEEbRNS0_8ImageBufERKS5_S8_S1_iEUlS1_E_E10_M_managerERSt9_Any_dataRKSB_St18_Manager_operation, ptr %_M_manager, align 8
  br label %if.end

lpad:                                             ; preds = %if.then
  %3 = landingpad { ptr, i32 }
          cleanup
  %4 = extractvalue { ptr, i32 } %3, 0
  store ptr %4, ptr %exn.slot, align 8
  %5 = extractvalue { ptr, i32 } %3, 1
  store i32 %5, ptr %ehselector.slot, align 4
  call void @_ZNSt14_Function_baseD2Ev(ptr noundef nonnull align 8 dereferenceable(24) %this1) #3
  br label %eh.resume

if.end:                                           ; preds = %invoke.cont, %entry
  ret void

eh.resume:                                        ; preds = %lpad
  %exn = load ptr, ptr %exn.slot, align 8
  %sel = load i32, ptr %ehselector.slot, align 4
  %lpad.val = insertvalue { ptr, i32 } poison, ptr %exn, 0
  %lpad.val3 = insertvalue { ptr, i32 } %lpad.val, i32 %sel, 1
  resume { ptr, i32 } %lpad.val3
}

; Function Attrs: mustprogress nounwind uwtable
define linkonce_odr void @_ZN18OpenImageIO_v2_6_06paroptC2EiNS0_8SplitDirEm(ptr noundef nonnull align 8 dereferenceable(25) %this, i32 noundef %maxthreads, i16 noundef signext %splitdir, i64 noundef %minitems) unnamed_addr #4 comdat align 2 {
entry:
  %this.addr = alloca ptr, align 8
  %maxthreads.addr = alloca i32, align 4
  %splitdir.addr = alloca i16, align 2
  %minitems.addr = alloca i64, align 8
  store ptr %this, ptr %this.addr, align 8
  store i32 %maxthreads, ptr %maxthreads.addr, align 4
  store i16 %splitdir, ptr %splitdir.addr, align 2
  store i64 %minitems, ptr %minitems.addr, align 8
  %this1 = load ptr, ptr %this.addr, align 8
  %m_maxthreads = getelementptr inbounds %"class.OpenImageIO_v2_6_0::paropt", ptr %this1, i32 0, i32 0
  %0 = load i32, ptr %maxthreads.addr, align 4
  store i32 %0, ptr %m_maxthreads, align 8
  %m_strategy = getelementptr inbounds %"class.OpenImageIO_v2_6_0::paropt", ptr %this1, i32 0, i32 1
  store i16 0, ptr %m_strategy, align 4
  %m_splitdir = getelementptr inbounds %"class.OpenImageIO_v2_6_0::paropt", ptr %this1, i32 0, i32 2
  %1 = load i16, ptr %splitdir.addr, align 2
  store i16 %1, ptr %m_splitdir, align 2
  %m_minitems = getelementptr inbounds %"class.OpenImageIO_v2_6_0::paropt", ptr %this1, i32 0, i32 3
  %2 = load i64, ptr %minitems.addr, align 8
  store i64 %2, ptr %m_minitems, align 8
  %m_pool = getelementptr inbounds %"class.OpenImageIO_v2_6_0::paropt", ptr %this1, i32 0, i32 4
  store ptr null, ptr %m_pool, align 8
  %m_recursive = getelementptr inbounds %"class.OpenImageIO_v2_6_0::paropt", ptr %this1, i32 0, i32 5
  store i8 0, ptr %m_recursive, align 8
  ret void
}

; Function Attrs: mustprogress uwtable
define internal noundef zeroext i1 @_ZN18OpenImageIO_v2_6_0L8div_implI4halfttEEbRNS_8ImageBufERKS2_S5_NS_3ROIEi(ptr noundef nonnull align 8 dereferenceable(16) %R, ptr noundef nonnull align 8 dereferenceable(16) %A, ptr noundef nonnull align 8 dereferenceable(16) %B, ptr noundef byval(%"struct.OpenImageIO_v2_6_0::ROI") align 8 %roi, i32 noundef %nthreads) #6 personality ptr @__gxx_personality_v0 {
entry:
  %R.addr = alloca ptr, align 8
  %A.addr = alloca ptr, align 8
  %B.addr = alloca ptr, align 8
  %nthreads.addr = alloca i32, align 4
  %agg.tmp = alloca %"struct.OpenImageIO_v2_6_0::ROI", align 8
  %agg.tmp1 = alloca %"class.OpenImageIO_v2_6_0::paropt", align 8
  %agg.tmp2 = alloca %"class.std::function", align 8
  %ref.tmp = alloca %class.anon.345, align 8
  %exn.slot = alloca ptr, align 8
  %ehselector.slot = alloca i32, align 4
  store ptr %R, ptr %R.addr, align 8
  store ptr %A, ptr %A.addr, align 8
  store ptr %B, ptr %B.addr, align 8
  store i32 %nthreads, ptr %nthreads.addr, align 4
  call void @llvm.memcpy.p0.p0.i64(ptr align 4 %agg.tmp, ptr align 8 %roi, i64 32, i1 false)
  %0 = load i32, ptr %nthreads.addr, align 4
  call void @_ZN18OpenImageIO_v2_6_06paroptC2EiNS0_8SplitDirEm(ptr noundef nonnull align 8 dereferenceable(25) %agg.tmp1, i32 noundef %0, i16 noundef signext 1, i64 noundef 1024) #3
  %1 = getelementptr inbounds %class.anon.345, ptr %ref.tmp, i32 0, i32 0
  %2 = load ptr, ptr %R.addr, align 8
  store ptr %2, ptr %1, align 8
  %3 = getelementptr inbounds %class.anon.345, ptr %ref.tmp, i32 0, i32 1
  %4 = load ptr, ptr %A.addr, align 8
  store ptr %4, ptr %3, align 8
  %5 = getelementptr inbounds %class.anon.345, ptr %ref.tmp, i32 0, i32 2
  %6 = load ptr, ptr %B.addr, align 8
  store ptr %6, ptr %5, align 8
  call void @_ZNSt8functionIFvN18OpenImageIO_v2_6_03ROIEEEC2IZNS0_L8div_implI4halfttEEbRNS0_8ImageBufERKS7_SA_S1_iEUlS1_E_vEEOT_(ptr noundef nonnull align 8 dereferenceable(32) %agg.tmp2, ptr noundef nonnull align 8 dereferenceable(24) %ref.tmp)
  invoke void @_ZN18OpenImageIO_v2_6_012ImageBufAlgo14parallel_imageENS_3ROIENS_6paroptESt8functionIFvS1_EE(ptr noundef byval(%"struct.OpenImageIO_v2_6_0::ROI") align 8 %agg.tmp, ptr noundef byval(%"class.OpenImageIO_v2_6_0::paropt") align 8 %agg.tmp1, ptr noundef %agg.tmp2)
          to label %invoke.cont unwind label %lpad

invoke.cont:                                      ; preds = %entry
  call void @_ZNSt8functionIFvN18OpenImageIO_v2_6_03ROIEEED2Ev(ptr noundef nonnull align 8 dereferenceable(32) %agg.tmp2) #3
  ret i1 true

lpad:                                             ; preds = %entry
  %7 = landingpad { ptr, i32 }
          cleanup
  %8 = extractvalue { ptr, i32 } %7, 0
  store ptr %8, ptr %exn.slot, align 8
  %9 = extractvalue { ptr, i32 } %7, 1
  store i32 %9, ptr %ehselector.slot, align 4
  call void @_ZNSt8functionIFvN18OpenImageIO_v2_6_03ROIEEED2Ev(ptr noundef nonnull align 8 dereferenceable(32) %agg.tmp2) #3
  br label %eh.resume

eh.resume:                                        ; preds = %lpad
  %exn = load ptr, ptr %exn.slot, align 8
  %sel = load i32, ptr %ehselector.slot, align 4
  %lpad.val = insertvalue { ptr, i32 } poison, ptr %exn, 0
  %lpad.val3 = insertvalue { ptr, i32 } %lpad.val, i32 %sel, 1
  resume { ptr, i32 } %lpad.val3
}